target datalayout = "e-m:e-p270:32:32-p271:32:32-p272:64:64-i64:64-i128:128-f80:128-n8:16:32:64-S128"
target triple = "x86_64-pc-linux-gnu"

; Function Attrs: nounwind uwtable
define internal void @threshold16(ptr noundef %0, ptr noundef %1, ptr noundef %2, ptr noundef %3, ptr noundef %4, i64 noundef %5, i64 noundef %6, i64 noundef %7, i64 noundef %8, i64 noundef %9, i32 noundef %10, i32 noundef %11) #2 {
  %13 = alloca ptr, align 8
  %14 = alloca ptr, align 8
  %15 = alloca ptr, align 8
  %16 = alloca ptr, align 8
  %17 = alloca ptr, align 8
  %18 = alloca i64, align 8
  %19 = alloca i64, align 8
  %20 = alloca i64, align 8
  %21 = alloca i64, align 8
  %22 = alloca i64, align 8
  %23 = alloca i32, align 4
  %24 = alloca i32, align 4
  %25 = alloca ptr, align 8
  %26 = alloca ptr, align 8
  %27 = alloca ptr, align 8
  %28 = alloca ptr, align 8
  %29 = alloca ptr, align 8
  %30 = alloca i32, align 4
  %31 = alloca i32, align 4
  %32 = alloca i32, align 4
  store ptr %0, ptr %13, align 8, !tbaa !53
  store ptr %1, ptr %14, align 8, !tbaa !53
  store ptr %2, ptr %15, align 8, !tbaa !53
  store ptr %3, ptr %16, align 8, !tbaa !53
  store ptr %4, ptr %17, align 8, !tbaa !53
  store i64 %5, ptr %18, align 8, !tbaa !54
  store i64 %6, ptr %19, align 8, !tbaa !54
  store i64 %7, ptr %20, align 8, !tbaa !54
  store i64 %8, ptr %21, align 8, !tbaa !54
  store i64 %9, ptr %22, align 8, !tbaa !54
  store i32 %10, ptr %23, align 4, !tbaa !44
  store i32 %11, ptr %24, align 4, !tbaa !44
  call void @llvm.lifetime.start.p0(i64 8, ptr %25) #9
  %33 = load ptr, ptr %13, align 8, !tbaa !53
  store ptr %33, ptr %25, align 8, !tbaa !59
  call void @llvm.lifetime.start.p0(i64 8, ptr %26) #9
  %34 = load ptr, ptr %14, align 8, !tbaa !53
  store ptr %34, ptr %26, align 8, !tbaa !59
  call void @llvm.lifetime.start.p0(i64 8, ptr %27) #9
  %35 = load ptr, ptr %15, align 8, !tbaa !53
  store ptr %35, ptr %27, align 8, !tbaa !59
  call void @llvm.lifetime.start.p0(i64 8, ptr %28) #9
  %36 = load ptr, ptr %16, align 8, !tbaa !53
  store ptr %36, ptr %28, align 8, !tbaa !59
  call void @llvm.lifetime.start.p0(i64 8, ptr %29) #9
  %37 = load ptr, ptr %17, align 8, !tbaa !53
  store ptr %37, ptr %29, align 8, !tbaa !59
  call void @llvm.lifetime.start.p0(i64 4, ptr %30) #9
  store i32 0, ptr %30, align 4, !tbaa !44
  br label %38

38:                                               ; preds = %108, %12
  %39 = load i32, ptr %30, align 4, !tbaa !44
  %40 = load i32, ptr %24, align 4, !tbaa !44
  %41 = icmp slt i32 %39, %40
  br i1 %41, label %43, label %42

42:                                               ; preds = %38
  store i32 2, ptr %31, align 4
  call void @llvm.lifetime.end.p0(i64 4, ptr %30) #9
  br label %111

43:                                               ; preds = %38
  call void @llvm.lifetime.start.p0(i64 4, ptr %32) #9
  store i32 0, ptr %32, align 4, !tbaa !44
  br label %44

44:                                               ; preds = %84, %43
  %45 = load i32, ptr %32, align 4, !tbaa !44
  %46 = load i32, ptr %23, align 4, !tbaa !44
  %47 = icmp slt i32 %45, %46
  br i1 %47, label %49, label %48

48:                                               ; preds = %44
  store i32 5, ptr %31, align 4
  call void @llvm.lifetime.end.p0(i64 4, ptr %32) #9
  br label %87

49:                                               ; preds = %44
  %50 = load ptr, ptr %25, align 8, !tbaa !59
  %51 = load i32, ptr %32, align 4, !tbaa !44
  %52 = sext i32 %51 to i64
  %53 = getelementptr inbounds i16, ptr %50, i64 %52
  %54 = load i16, ptr %53, align 2, !tbaa !61
  %55 = zext i16 %54 to i32
  %56 = load ptr, ptr %26, align 8, !tbaa !59
  %57 = load i32, ptr %32, align 4, !tbaa !44
  %58 = sext i32 %57 to i64
  %59 = getelementptr inbounds i16, ptr %56, i64 %58
  %60 = load i16, ptr %59, align 2, !tbaa !61
  %61 = zext i16 %60 to i32
  %62 = icmp sle i32 %55, %61
  br i1 %62, label %63, label %70

63:                                               ; preds = %49
  %64 = load ptr, ptr %27, align 8, !tbaa !59
  %65 = load i32, ptr %32, align 4, !tbaa !44
  %66 = sext i32 %65 to i64
  %67 = getelementptr inbounds i16, ptr %64, i64 %66
  %68 = load i16, ptr %67, align 2, !tbaa !61
  %69 = zext i16 %68 to i32
  br label %77

70:                                               ; preds = %49
  %71 = load ptr, ptr %28, align 8, !tbaa !59
  %72 = load i32, ptr %32, align 4, !tbaa !44
  %73 = sext i32 %72 to i64
  %74 = getelementptr inbounds i16, ptr %71, i64 %73
  %75 = load i16, ptr %74, align 2, !tbaa !61
  %76 = zext i16 %75 to i32
  br label %77

77:                                               ; preds = %70, %63
  %78 = phi i32 [ %69, %63 ], [ %76, %70 ]
  %79 = trunc i32 %78 to i16
  %80 = load ptr, ptr %29, align 8, !tbaa !59
  %81 = load i32, ptr %32, align 4, !tbaa !44
  %82 = sext i32 %81 to i64
  %83 = getelementptr inbounds i16, ptr %80, i64 %82
  store i16 %79, ptr %83, align 2, !tbaa !61
  br label %84

84:                                               ; preds = %77
  %85 = load i32, ptr %32, align 4, !tbaa !44
  %86 = add nsw i32 %85, 1
  store i32 %86, ptr %32, align 4, !tbaa !44
  br label %44, !llvm.loop !63

87:                                               ; preds = %48
  %88 = load i64, ptr %18, align 8, !tbaa !54
  %89 = sdiv i64 %88, 2
  %90 = load ptr, ptr %25, align 8, !tbaa !59
  %91 = getelementptr inbounds i16, ptr %90, i64 %89
  store ptr %91, ptr %25, align 8, !tbaa !59
  %92 = load i64, ptr %19, align 8, !tbaa !54
  %93 = sdiv i64 %92, 2
  %94 = load ptr, ptr %26, align 8, !tbaa !59
  %95 = getelementptr inbounds i16, ptr %94, i64 %93
  store ptr %95, ptr %26, align 8, !tbaa !59
  %96 = load i64, ptr %20, align 8, !tbaa !54
  %97 = sdiv i64 %96, 2
  %98 = load ptr, ptr %27, align 8, !tbaa !59
  %99 = getelementptr inbounds i16, ptr %98, i64 %97
  store ptr %99, ptr %27, align 8, !tbaa !59
  %100 = load i64, ptr %21, align 8, !tbaa !54
  %101 = sdiv i64 %100, 2
  %102 = load ptr, ptr %28, align 8, !tbaa !59
  %103 = getelementptr inbounds i16, ptr %102, i64 %101
  store ptr %103, ptr %28, align 8, !tbaa !59
  %104 = load i64, ptr %22, align 8, !tbaa !54
  %105 = sdiv i64 %104, 2
  %106 = load ptr, ptr %29, align 8, !tbaa !59
  %107 = getelementptr inbounds i16, ptr %106, i64 %105
  store ptr %107, ptr %29, align 8, !tbaa !59
  br label %108

108:                                              ; preds = %87
  %109 = load i32, ptr %30, align 4, !tbaa !44
  %110 = add nsw i32 %109, 1
  store i32 %110, ptr %30, align 4, !tbaa !44
  br label %38, !llvm.loop !64

111:                                              ; preds = %42
  call void @llvm.lifetime.end.p0(i64 8, ptr %29) #9
  call void @llvm.lifetime.end.p0(i64 8, ptr %28) #9
  call void @llvm.lifetime.end.p0(i64 8, ptr %27) #9
  call void @llvm.lifetime.end.p0(i64 8, ptr %26) #9
  call void @llvm.lifetime.end.p0(i64 8, ptr %25) #9
  ret void
}